target datalayout = "e-m:e-p270:32:32-p271:32:32-p272:64:64-i64:64-i128:128-f80:128-n8:16:32:64-S128"
target triple = "x86_64-pc-linux-gnu"

%struct._php_output_context = type { i32, %struct._php_output_buffer, %struct._php_output_buffer }
%struct._php_output_buffer = type { ptr, i64, i64, i32 }
%struct._php_output_handler = type { ptr, i32, i32, i64, %struct._php_output_buffer, ptr, ptr, %union.anon.2 }
%union.anon.2 = type { ptr }

; Function Attrs: inlinehint nounwind uwtable
define internal void @php_output_context_dtor(ptr noundef %0) #1 {
  %2 = alloca ptr, align 8
  store ptr %0, ptr %2, align 8, !tbaa !69
  %3 = load ptr, ptr %2, align 8, !tbaa !69
  %4 = getelementptr inbounds nuw %struct._php_output_context, ptr %3, i32 0, i32 1
  %5 = getelementptr inbounds nuw %struct._php_output_buffer, ptr %4, i32 0, i32 3
  %6 = load i32, ptr %5, align 8
  %7 = and i32 %6, 1
  %8 = icmp ne i32 %7, 0
  br i1 %8, label %9, label %23

9:                                                ; preds = %1
  %10 = load ptr, ptr %2, align 8, !tbaa !69
  %11 = getelementptr inbounds nuw %struct._php_output_context, ptr %10, i32 0, i32 1
  %12 = getelementptr inbounds nuw %struct._php_output_buffer, ptr %11, i32 0, i32 0
  %13 = load ptr, ptr %12, align 8, !tbaa !61
  %14 = icmp ne ptr %13, null
  br i1 %14, label %15, label %23

15:                                               ; preds = %9
  %16 = load ptr, ptr %2, align 8, !tbaa !69
  %17 = getelementptr inbounds nuw %struct._php_output_context, ptr %16, i32 0, i32 1
  %18 = getelementptr inbounds nuw %struct._php_output_buffer, ptr %17, i32 0, i32 0
  %19 = load ptr, ptr %18, align 8, !tbaa !61
  call void @_efree(ptr noundef %19)
  %20 = load ptr, ptr %2, align 8, !tbaa !69
  %21 = getelementptr inbounds nuw %struct._php_output_context, ptr %20, i32 0, i32 1
  %22 = getelementptr inbounds nuw %struct._php_output_buffer, ptr %21, i32 0, i32 0
  store ptr null, ptr %22, align 8, !tbaa !61
  br label %23

23:                                               ; preds = %15, %9, %1
  %24 = load ptr, ptr %2, align 8, !tbaa !69
  %25 = getelementptr inbounds nuw %struct._php_output_context, ptr %24, i32 0, i32 2
  %26 = getelementptr inbounds nuw %struct._php_output_buffer, ptr %25, i32 0, i32 3
  %27 = load i32, ptr %26, align 8
  %28 = and i32 %27, 1
  %29 = icmp ne i32 %28, 0
  br i1 %29, label %30, label %44

30:                                               ; preds = %23
  %31 = load ptr, ptr %2, align 8, !tbaa !69
  %32 = getelementptr inbounds nuw %struct._php_output_context, ptr %31, i32 0, i32 2
  %33 = getelementptr inbounds nuw %struct._php_output_buffer, ptr %32, i32 0, i32 0
  %34 = load ptr, ptr %33, align 8, !tbaa !67
  %35 = icmp ne ptr %34, null
  br i1 %35, label %36, label %44

36:                                               ; preds = %30
  %37 = load ptr, ptr %2, align 8, !tbaa !69
  %38 = getelementptr inbounds nuw %struct._php_output_context, ptr %37, i32 0, i32 2
  %39 = getelementptr inbounds nuw %struct._php_output_buffer, ptr %38, i32 0, i32 0
  %40 = load ptr, ptr %39, align 8, !tbaa !67
  call void @_efree(ptr noundef %40)
  %41 = load ptr, ptr %2, align 8, !tbaa !69
  %42 = getelementptr inbounds nuw %struct._php_output_context, ptr %41, i32 0, i32 2
  %43 = getelementptr inbounds nuw %struct._php_output_buffer, ptr %42, i32 0, i32 0
  store ptr null, ptr %43, align 8, !tbaa !67
  br label %44

44:                                               ; preds = %36, %30, %23
  ret void
}

; Function Attrs: inlinehint nounwind uwtable
define internal void @php_output_context_reset(ptr noundef %0) #1 {
  %2 = alloca ptr, align 8
  %3 = alloca i32, align 4
  store ptr %0, ptr %2, align 8, !tbaa !69
  call void @llvm.lifetime.start.p0(i64 4, ptr %3) #15
  %4 = load ptr, ptr %2, align 8, !tbaa !69
  %5 = getelementptr inbounds nuw %struct._php_output_context, ptr %4, i32 0, i32 0
  %6 = load i32, ptr %5, align 8, !tbaa !71
  store i32 %6, ptr %3, align 4, !tbaa !57
  %7 = load ptr, ptr %2, align 8, !tbaa !69
  call void @php_output_context_dtor(ptr noundef %7)
  %8 = load ptr, ptr %2, align 8, !tbaa !69
  call void @llvm.memset.p0.i64(ptr align 8 %8, i8 0, i64 72, i1 false)
  %9 = load i32, ptr %3, align 4, !tbaa !57
  %10 = load ptr, ptr %2, align 8, !tbaa !69
  %11 = getelementptr inbounds nuw %struct._php_output_context, ptr %10, i32 0, i32 0
  store i32 %9, ptr %11, align 8, !tbaa !71
  call void @llvm.lifetime.end.p0(i64 4, ptr %3) #15
  ret void
}

; Function Attrs: nounwind uwtable
define internal i32 @php_output_stack_apply_clean(ptr noundef %0, ptr noundef %1) #0 {
  %3 = alloca ptr, align 8
  %4 = alloca ptr, align 8
  %5 = alloca ptr, align 8
  %6 = alloca ptr, align 8
  store ptr %0, ptr %3, align 8, !tbaa !4
  store ptr %1, ptr %4, align 8, !tbaa !4
  call void @llvm.lifetime.start.p0(i64 8, ptr %5) #15
  %7 = load ptr, ptr %3, align 8, !tbaa !4
  %8 = load ptr, ptr %7, align 8, !tbaa !55
  store ptr %8, ptr %5, align 8, !tbaa !55
  call void @llvm.lifetime.start.p0(i64 8, ptr %6) #15
  %9 = load ptr, ptr %4, align 8, !tbaa !4
  store ptr %9, ptr %6, align 8, !tbaa !69
  %10 = load ptr, ptr %5, align 8, !tbaa !55
  %11 = getelementptr inbounds nuw %struct._php_output_handler, ptr %10, i32 0, i32 4
  %12 = getelementptr inbounds nuw %struct._php_output_buffer, ptr %11, i32 0, i32 2
  store i64 0, ptr %12, align 8, !tbaa !73
  %13 = load ptr, ptr %5, align 8, !tbaa !55
  %14 = load ptr, ptr %6, align 8, !tbaa !69
  %15 = call i32 @php_output_handler_op(ptr noundef %13, ptr noundef %14)
  %16 = load ptr, ptr %6, align 8, !tbaa !69
  call void @php_output_context_reset(ptr noundef %16)
  call void @llvm.lifetime.end.p0(i64 8, ptr %6) #15
  call void @llvm.lifetime.end.p0(i64 8, ptr %5) #15
  ret i32 0
}