; Function Attrs: nounwind uwtable
define internal noundef i32 @php_output_stack_apply_clean(ptr noundef readonly captures(none) %0, ptr noundef %1) #0 {
  %3 = load ptr, ptr %0, align 8, !tbaa !18
  %4 = getelementptr inbounds nuw i8, ptr %3, i64 40
  store i64 0, ptr %4, align 8, !tbaa !64
  %5 = tail call fastcc i32 @php_output_handler_op(ptr noundef %3, ptr noundef %1)
  %6 = load i32, ptr %1, align 8, !tbaa !49
  %7 = getelementptr inbounds nuw i8, ptr %1, i64 8
  %8 = getelementptr inbounds nuw i8, ptr %1, i64 32
  %9 = load i32, ptr %8, align 8
  %10 = and i32 %9, 1
  %.not.i.i = icmp eq i32 %10, 0
  br i1 %.not.i.i, label %14, label %11

11:                                               ; preds = %2
  %12 = load ptr, ptr %7, align 8, !tbaa !52
  %.not9.i.i = icmp eq ptr %12, null
  br i1 %.not9.i.i, label %14, label %13

13:                                               ; preds = %11
  tail call void @_efree(ptr noundef nonnull %12) #22
  store ptr null, ptr %7, align 8, !tbaa !52
  br label %14

14:                                               ; preds = %13, %11, %2
  %15 = getelementptr inbounds nuw i8, ptr %1, i64 64
  %16 = load i32, ptr %15, align 8
  %17 = and i32 %16, 1
  %.not10.i.i = icmp eq i32 %17, 0
  br i1 %.not10.i.i, label %php_output_context_reset.exit, label %18

18:                                               ; preds = %14
  %19 = getelementptr inbounds nuw i8, ptr %1, i64 40
  %20 = load ptr, ptr %19, align 8, !tbaa !56
  %.not11.i.i = icmp eq ptr %20, null
  br i1 %.not11.i.i, label %php_output_context_reset.exit, label %21

21:                                               ; preds = %18
  tail call void @_efree(ptr noundef nonnull %20) #22
  br label %php_output_context_reset.exit

php_output_context_reset.exit:                    ; preds = %14, %18, %21
  tail call void @llvm.memset.p0.i64(ptr noundef nonnull align 8 dereferenceable(72) %1, i8 0, i64 72, i1 false)
  store i32 %6, ptr %1, align 8, !tbaa !49
  ret i32 0
}